; Function Attrs: nounwind uwtable
define ptr @l_Lean_Widget_lazyTraceChildrenToInteractive(ptr noundef %0, ptr noundef %1, ptr noundef %2) #1 {
  %4 = getelementptr inbounds nuw i8, ptr %0, i64 8
  %5 = load ptr, ptr %4, align 8, !tbaa !4
  %6 = ptrtoint ptr %5 to i64
  %7 = and i64 %6, 1
  %.not = icmp eq i64 %7, 0
  br i1 %.not, label %8, label %lean_inc.exit18

8:                                                ; preds = %3
  %.val.i = load i32, ptr %5, align 4, !tbaa !8
  %9 = icmp sgt i32 %.val.i, 0
  br i1 %9, label %10, label %12, !prof !11

10:                                               ; preds = %8
  %11 = add nuw i32 %.val.i, 1
  store i32 %11, ptr %5, align 4, !tbaa !8
  br label %lean_inc.exit18

12:                                               ; preds = %8
  %.not.i19 = icmp eq i32 %.val.i, 0
  br i1 %.not.i19, label %lean_inc.exit18, label %13

13:                                               ; preds = %12
  tail call void @lean_inc_ref_cold(ptr noundef nonnull %5) #5
  br label %lean_inc.exit18

lean_inc.exit18:                                  ; preds = %13, %12, %10, %3
  %14 = getelementptr inbounds nuw i8, ptr %0, i64 16
  %15 = load ptr, ptr %14, align 8, !tbaa !4
  %16 = ptrtoint ptr %15 to i64
  %17 = and i64 %16, 1
  %.not23 = icmp eq i64 %17, 0
  br i1 %.not23, label %18, label %lean_inc.exit

18:                                               ; preds = %lean_inc.exit18
  %.val.i20 = load i32, ptr %15, align 4, !tbaa !8
  %19 = icmp sgt i32 %.val.i20, 0
  br i1 %19, label %20, label %22, !prof !11

20:                                               ; preds = %18
  %21 = add nuw i32 %.val.i20, 1
  store i32 %21, ptr %15, align 4, !tbaa !8
  br label %lean_inc.exit

22:                                               ; preds = %18
  %.not.i21 = icmp eq i32 %.val.i20, 0
  br i1 %.not.i21, label %lean_inc.exit, label %23

23:                                               ; preds = %22
  tail call void @lean_inc_ref_cold(ptr noundef nonnull %15) #5
  br label %lean_inc.exit

lean_inc.exit:                                    ; preds = %23, %22, %20, %lean_inc.exit18
  %24 = ptrtoint ptr %0 to i64
  %25 = and i64 %24, 1
  %.not24 = icmp eq i64 %25, 0
  br i1 %.not24, label %26, label %lean_dec.exit

26:                                               ; preds = %lean_inc.exit
  %27 = load i32, ptr %0, align 4, !tbaa !8
  %28 = icmp sgt i32 %27, 1
  br i1 %28, label %29, label %31, !prof !11

29:                                               ; preds = %26
  %30 = add nsw i32 %27, -1
  store i32 %30, ptr %0, align 4, !tbaa !8
  br label %lean_dec.exit

31:                                               ; preds = %26
  %.not.i = icmp eq i32 %27, 0
  br i1 %.not.i, label %lean_dec.exit, label %32

32:                                               ; preds = %31
  tail call void @lean_dec_ref_cold(ptr noundef nonnull %0) #5
  br label %lean_dec.exit

lean_dec.exit:                                    ; preds = %32, %31, %29, %lean_inc.exit
  %33 = getelementptr i8, ptr %15, i64 8
  %.val = load i64, ptr %33, align 8, !tbaa !12
  tail call void @lean_inc_heartbeat() #5
  %34 = tail call noalias ptr @mi_malloc_small(i64 noundef 16) #5
  %35 = icmp eq ptr %34, null
  br i1 %35, label %36, label %lean_box_usize.exit

36:                                               ; preds = %lean_dec.exit
  tail call void @lean_internal_panic_out_of_memory() #6
  unreachable

lean_box_usize.exit:                              ; preds = %lean_dec.exit
  %37 = getelementptr inbounds nuw i8, ptr %34, i64 4
  store i32 1, ptr %34, align 4, !tbaa !8
  store i32 16, ptr %37, align 4
  %38 = getelementptr inbounds nuw i8, ptr %34, i64 8
  store i64 %.val, ptr %38, align 8, !tbaa !12
  %39 = load ptr, ptr @l_Lean_Widget_lazyTraceChildrenToInteractive___boxed__const__1, align 8, !tbaa !4
  tail call void @lean_inc_heartbeat() #5
  %40 = tail call noalias ptr @mi_malloc_small(i64 noundef 56) #5
  %41 = icmp eq ptr %40, null
  br i1 %41, label %42, label %lean_alloc_closure.exit

42:                                               ; preds = %lean_box_usize.exit
  tail call void @lean_internal_panic_out_of_memory() #6
  unreachable

lean_alloc_closure.exit:                          ; preds = %lean_box_usize.exit
  %43 = getelementptr inbounds nuw i8, ptr %40, i64 4
  store i32 1, ptr %40, align 4, !tbaa !8
  store i32 -184549320, ptr %43, align 4
  %44 = getelementptr inbounds nuw i8, ptr %40, i64 8
  store ptr @l_Array_mapMUnsafe_map___at_Lean_Widget_lazyTraceChildrenToInteractive___spec__1___boxed, ptr %44, align 8, !tbaa !4
  %45 = getelementptr inbounds nuw i8, ptr %40, i64 16
  store i16 6, ptr %45, align 8, !tbaa !14
  %46 = getelementptr inbounds nuw i8, ptr %40, i64 18
  store i16 4, ptr %46, align 2, !tbaa !14
  %47 = getelementptr inbounds nuw i8, ptr %40, i64 24
  store ptr %5, ptr %47, align 8, !tbaa !4
  %48 = getelementptr inbounds nuw i8, ptr %40, i64 32
  store ptr %34, ptr %48, align 8, !tbaa !4
  %49 = getelementptr inbounds nuw i8, ptr %40, i64 40
  store ptr %39, ptr %49, align 8, !tbaa !4
  %50 = getelementptr inbounds nuw i8, ptr %40, i64 48
  store ptr %15, ptr %50, align 8, !tbaa !4
  %51 = tail call ptr @l_Lean_Server_RequestM_pureTask___rarg(ptr noundef nonnull %40, ptr noundef %1, ptr noundef %2) #5
  ret ptr %51
}